; Function Attrs: nounwind uwtable
define ptr @l_Lean_RArray_ofArray___rarg___lambda__1___boxed(ptr noundef %0, ptr noundef %1) #0 {
  %3 = ptrtoint ptr %1 to i64
  %4 = lshr i64 %3, 1
  %5 = getelementptr inbounds nuw i8, ptr %0, i64 24
  %6 = getelementptr inbounds nuw [0 x ptr], ptr %5, i64 0, i64 %4
  %7 = load ptr, ptr %6, align 8, !tbaa !11
  %8 = ptrtoint ptr %7 to i64
  %9 = and i64 %8, 1
  %.not.i.i.i = icmp eq i64 %9, 0
  br i1 %.not.i.i.i, label %10, label %l_Lean_RArray_ofArray___rarg___lambda__1.exit

10:                                               ; preds = %2
  %.val.i.i.i.i = load i32, ptr %7, align 4, !tbaa !6
  %11 = icmp sgt i32 %.val.i.i.i.i, 0
  br i1 %11, label %12, label %14, !prof !5

12:                                               ; preds = %10
  %13 = add nuw i32 %.val.i.i.i.i, 1
  store i32 %13, ptr %7, align 4, !tbaa !6
  br label %l_Lean_RArray_ofArray___rarg___lambda__1.exit

14:                                               ; preds = %10
  %.not.i.i.i.i = icmp eq i32 %.val.i.i.i.i, 0
  br i1 %.not.i.i.i.i, label %l_Lean_RArray_ofArray___rarg___lambda__1.exit, label %15

15:                                               ; preds = %14
  tail call void @lean_inc_ref_cold(ptr noundef nonnull %7) #3
  br label %l_Lean_RArray_ofArray___rarg___lambda__1.exit

l_Lean_RArray_ofArray___rarg___lambda__1.exit:    ; preds = %2, %12, %14, %15
  %16 = and i64 %3, 1
  %.not = icmp eq i64 %16, 0
  br i1 %.not, label %17, label %lean_dec.exit5

17:                                               ; preds = %l_Lean_RArray_ofArray___rarg___lambda__1.exit
  %18 = load i32, ptr %1, align 4, !tbaa !6
  %19 = icmp sgt i32 %18, 1
  br i1 %19, label %20, label %22, !prof !5

20:                                               ; preds = %17
  %21 = add nsw i32 %18, -1
  store i32 %21, ptr %1, align 4, !tbaa !6
  br label %lean_dec.exit5

22:                                               ; preds = %17
  %.not.i = icmp eq i32 %18, 0
  br i1 %.not.i, label %lean_dec.exit5, label %23

23:                                               ; preds = %22
  tail call void @lean_dec_ref_cold(ptr noundef nonnull %1) #3
  br label %lean_dec.exit5

lean_dec.exit5:                                   ; preds = %23, %22, %20, %l_Lean_RArray_ofArray___rarg___lambda__1.exit
  %24 = ptrtoint ptr %0 to i64
  %25 = and i64 %24, 1
  %.not8 = icmp eq i64 %25, 0
  br i1 %.not8, label %26, label %lean_dec.exit

26:                                               ; preds = %lean_dec.exit5
  %27 = load i32, ptr %0, align 4, !tbaa !6
  %28 = icmp sgt i32 %27, 1
  br i1 %28, label %29, label %31, !prof !5

29:                                               ; preds = %26
  %30 = add nsw i32 %27, -1
  store i32 %30, ptr %0, align 4, !tbaa !6
  br label %lean_dec.exit

31:                                               ; preds = %26
  %.not.i6 = icmp eq i32 %27, 0
  br i1 %.not.i6, label %lean_dec.exit, label %32

32:                                               ; preds = %31
  tail call void @lean_dec_ref_cold(ptr noundef nonnull %0) #3
  br label %lean_dec.exit

lean_dec.exit:                                    ; preds = %32, %31, %29, %lean_dec.exit5
  ret ptr %7
}